target datalayout = "e-m:e-p270:32:32-p271:32:32-p272:64:64-i64:64-i128:128-f80:128-n8:16:32:64-S128"
target triple = "x86_64-pc-linux-gnu"

; Function Attrs: inlinehint mustprogress nounwind uwtable
define linkonce_odr dso_local noundef float @_ZN4pbrt18EvaluatePolynomialIffEET_S1_T0_(float noundef %0, float noundef %1) #7 comdat {
  %3 = alloca float, align 4
  %4 = alloca float, align 4
  store float %0, ptr %3, align 4, !tbaa !9
  store float %1, ptr %4, align 4, !tbaa !9
  %5 = load float, ptr %4, align 4, !tbaa !9
  ret float %5
}

; Function Attrs: inlinehint mustprogress uwtable
define linkonce_odr dso_local noundef float @_ZN4pbrt18EvaluatePolynomialIffJfEEET_S1_T0_DpT1_(float noundef %0, float noundef %1, float noundef %2) #3 comdat {
  %4 = alloca float, align 4
  %5 = alloca float, align 4
  %6 = alloca float, align 4
  store float %0, ptr %4, align 4, !tbaa !9
  store float %1, ptr %5, align 4, !tbaa !9
  store float %2, ptr %6, align 4, !tbaa !9
  %7 = load float, ptr %4, align 4, !tbaa !9
  %8 = load float, ptr %4, align 4, !tbaa !9
  %9 = load float, ptr %6, align 4, !tbaa !9
  %10 = call noundef float @_ZN4pbrt18EvaluatePolynomialIffEET_S1_T0_(float noundef %8, float noundef %9)
  %11 = load float, ptr %5, align 4, !tbaa !9
  %12 = call noundef float @_ZN4pbrt3FMAEfff(float noundef %7, float noundef %10, float noundef %11)
  ret float %12
}

; Function Attrs: mustprogress nounwind uwtable
define linkonce_odr dso_local noundef float @_ZSt3fmafff(float noundef %0, float noundef %1, float noundef %2) #6 comdat {
  %4 = alloca float, align 4
  %5 = alloca float, align 4
  %6 = alloca float, align 4
  store float %0, ptr %4, align 4, !tbaa !9
  store float %1, ptr %5, align 4, !tbaa !9
  store float %2, ptr %6, align 4, !tbaa !9
  %7 = load float, ptr %4, align 4, !tbaa !9
  %8 = load float, ptr %5, align 4, !tbaa !9
  %9 = load float, ptr %6, align 4, !tbaa !9
  %10 = call float @llvm.fma.f32(float %7, float %8, float %9)
  ret float %10
}

; Function Attrs: inlinehint mustprogress uwtable
define linkonce_odr dso_local noundef float @_ZN4pbrt18EvaluatePolynomialIffJffEEET_S1_T0_DpT1_(float noundef %0, float noundef %1, float noundef %2, float noundef %3) #3 comdat {
  %5 = alloca float, align 4
  %6 = alloca float, align 4
  %7 = alloca float, align 4
  %8 = alloca float, align 4
  store float %0, ptr %5, align 4, !tbaa !9
  store float %1, ptr %6, align 4, !tbaa !9
  store float %2, ptr %7, align 4, !tbaa !9
  store float %3, ptr %8, align 4, !tbaa !9
  %9 = load float, ptr %5, align 4, !tbaa !9
  %10 = load float, ptr %5, align 4, !tbaa !9
  %11 = load float, ptr %7, align 4, !tbaa !9
  %12 = load float, ptr %8, align 4, !tbaa !9
  %13 = call noundef float @_ZN4pbrt18EvaluatePolynomialIffJfEEET_S1_T0_DpT1_(float noundef %10, float noundef %11, float noundef %12)
  %14 = load float, ptr %6, align 4, !tbaa !9
  %15 = call noundef float @_ZN4pbrt3FMAEfff(float noundef %9, float noundef %13, float noundef %14)
  ret float %15
}

; Function Attrs: inlinehint mustprogress uwtable
define linkonce_odr dso_local noundef float @_ZN4pbrt3FMAEfff(float noundef %0, float noundef %1, float noundef %2) #3 comdat {
  %4 = alloca float, align 4
  %5 = alloca float, align 4
  %6 = alloca float, align 4
  store float %0, ptr %4, align 4, !tbaa !9
  store float %1, ptr %5, align 4, !tbaa !9
  store float %2, ptr %6, align 4, !tbaa !9
  %7 = load float, ptr %4, align 4, !tbaa !9
  %8 = load float, ptr %5, align 4, !tbaa !9
  %9 = load float, ptr %6, align 4, !tbaa !9
  %10 = call noundef float @_ZSt3fmafff(float noundef %7, float noundef %8, float noundef %9)
  ret float %10
}

; Function Attrs: inlinehint mustprogress uwtable
define linkonce_odr dso_local noundef float @_ZN4pbrt18EvaluatePolynomialIffJfffEEET_S1_T0_DpT1_(float noundef %0, float noundef %1, float noundef %2, float noundef %3, float noundef %4) #3 comdat {
  %6 = alloca float, align 4
  %7 = alloca float, align 4
  %8 = alloca float, align 4
  %9 = alloca float, align 4
  %10 = alloca float, align 4
  store float %0, ptr %6, align 4, !tbaa !9
  store float %1, ptr %7, align 4, !tbaa !9
  store float %2, ptr %8, align 4, !tbaa !9
  store float %3, ptr %9, align 4, !tbaa !9
  store float %4, ptr %10, align 4, !tbaa !9
  %11 = load float, ptr %6, align 4, !tbaa !9
  %12 = load float, ptr %6, align 4, !tbaa !9
  %13 = load float, ptr %8, align 4, !tbaa !9
  %14 = load float, ptr %9, align 4, !tbaa !9
  %15 = load float, ptr %10, align 4, !tbaa !9
  %16 = call noundef float @_ZN4pbrt18EvaluatePolynomialIffJffEEET_S1_T0_DpT1_(float noundef %12, float noundef %13, float noundef %14, float noundef %15)
  %17 = load float, ptr %7, align 4, !tbaa !9
  %18 = call noundef float @_ZN4pbrt3FMAEfff(float noundef %11, float noundef %16, float noundef %17)
  ret float %18
}

; Function Attrs: inlinehint mustprogress uwtable
define linkonce_odr dso_local noundef float @_ZN4pbrt18EvaluatePolynomialIffJffffEEET_S1_T0_DpT1_(float noundef %0, float noundef %1, float noundef %2, float noundef %3, float noundef %4, float noundef %5) #3 comdat {
  %7 = alloca float, align 4
  %8 = alloca float, align 4
  %9 = alloca float, align 4
  %10 = alloca float, align 4
  %11 = alloca float, align 4
  %12 = alloca float, align 4
  store float %0, ptr %7, align 4, !tbaa !9
  store float %1, ptr %8, align 4, !tbaa !9
  store float %2, ptr %9, align 4, !tbaa !9
  store float %3, ptr %10, align 4, !tbaa !9
  store float %4, ptr %11, align 4, !tbaa !9
  store float %5, ptr %12, align 4, !tbaa !9
  %13 = load float, ptr %7, align 4, !tbaa !9
  %14 = load float, ptr %7, align 4, !tbaa !9
  %15 = load float, ptr %9, align 4, !tbaa !9
  %16 = load float, ptr %10, align 4, !tbaa !9
  %17 = load float, ptr %11, align 4, !tbaa !9
  %18 = load float, ptr %12, align 4, !tbaa !9
  %19 = call noundef float @_ZN4pbrt18EvaluatePolynomialIffJfffEEET_S1_T0_DpT1_(float noundef %14, float noundef %15, float noundef %16, float noundef %17, float noundef %18)
  %20 = load float, ptr %8, align 4, !tbaa !9
  %21 = call noundef float @_ZN4pbrt3FMAEfff(float noundef %13, float noundef %19, float noundef %20)
  ret float %21
}

; Function Attrs: inlinehint mustprogress uwtable
define linkonce_odr dso_local noundef float @_ZN4pbrt12SRGBToLinearEf(float noundef %0) #3 comdat {
  %2 = alloca float, align 4
  %3 = alloca float, align 4
  %4 = alloca float, align 4
  %5 = alloca float, align 4
  store float %0, ptr %3, align 4, !tbaa !9
  %6 = load float, ptr %3, align 4, !tbaa !9
  %7 = fcmp ole float %6, 0x3FA4B5DCC0000000
  br i1 %7, label %8, label %11

8:                                                ; preds = %1
  %9 = load float, ptr %3, align 4, !tbaa !9
  %10 = fmul float %9, 0x3FB3D07220000000
  store float %10, ptr %2, align 4
  br label %21

11:                                               ; preds = %1
  call void @llvm.lifetime.start.p0(i64 4, ptr %4) #9
  %12 = load float, ptr %3, align 4, !tbaa !9
  %13 = call noundef float @_ZN4pbrt18EvaluatePolynomialIffJffffEEET_S1_T0_DpT1_(float noundef %12, float noundef 0xBF90C969A0000000, float noundef 0xBFE7A2E140000000, float noundef 0xC026660D00000000, float noundef 0xC047BBCF60000000, float noundef 0xC04205DA60000000)
  store float %13, ptr %4, align 4, !tbaa !9
  call void @llvm.lifetime.start.p0(i64 4, ptr %5) #9
  %14 = load float, ptr %3, align 4, !tbaa !9
  %15 = call noundef float @_ZN4pbrt18EvaluatePolynomialIffJffffEEET_S1_T0_DpT1_(float noundef %14, float noundef 0xBF71747C80000000, float noundef 0xC0332413A0000000, float noundef 0xC04D8C5700000000, float noundef 0xC03239CA80000000, float noundef 1.000000e+00)
  store float %15, ptr %5, align 4, !tbaa !9
  %16 = load float, ptr %4, align 4, !tbaa !9
  %17 = load float, ptr %5, align 4, !tbaa !9
  %18 = fdiv float %16, %17
  %19 = load float, ptr %3, align 4, !tbaa !9
  %20 = fmul float %18, %19
  store float %20, ptr %2, align 4
  call void @llvm.lifetime.end.p0(i64 4, ptr %5) #9
  call void @llvm.lifetime.end.p0(i64 4, ptr %4) #9
  br label %21

21:                                               ; preds = %11, %8
  %22 = load float, ptr %2, align 4
  ret float %22
}

; Function Attrs: mustprogress uwtable
define dso_local noundef float @_ZNK4pbrt17sRGBColorEncoding13ToFloatLinearEf(ptr noundef nonnull align 1 dereferenceable(1) %0, float noundef %1) #1 align 2 {
  %3 = alloca ptr, align 8
  %4 = alloca float, align 4
  store ptr %0, ptr %3, align 8, !tbaa !66
  store float %1, ptr %4, align 4, !tbaa !9
  %5 = load float, ptr %4, align 4, !tbaa !9
  %6 = call noundef float @_ZN4pbrt12SRGBToLinearEf(float noundef %5)
  ret float %6
}