; Function Attrs: mustprogress nofree norecurse nosync nounwind willreturn memory(none) uwtable
define dso_local noundef float @_ZNK4pbrt17sRGBColorEncoding13ToFloatLinearEf(ptr noundef nonnull readnone align 1 captures(none) dereferenceable(1) %0, float noundef %1) local_unnamed_addr #6 align 2 {
  %3 = fcmp ugt float %1, 0x3FA4B5DCC0000000
  br i1 %3, label %4, label %_ZN4pbrt12SRGBToLinearEf.exit

4:                                                ; preds = %2
  %5 = tail call noundef float @llvm.fma.f32(float %1, float 0xC04205DA60000000, float 0xC047BBCF60000000)
  %6 = tail call noundef float @llvm.fma.f32(float %1, float %5, float 0xC026660D00000000)
  %7 = tail call noundef float @llvm.fma.f32(float %1, float %6, float 0xBFE7A2E140000000)
  %8 = tail call noundef float @llvm.fma.f32(float %1, float %7, float 0xBF90C969A0000000)
  %9 = fadd float %1, 0xC03239CA80000000
  %10 = tail call noundef float @llvm.fma.f32(float %1, float %9, float 0xC04D8C5700000000)
  %11 = tail call noundef float @llvm.fma.f32(float %1, float %10, float 0xC0332413A0000000)
  %12 = tail call noundef float @llvm.fma.f32(float %1, float %11, float 0xBF71747C80000000)
  %13 = fdiv float %8, %12
  br label %_ZN4pbrt12SRGBToLinearEf.exit

_ZN4pbrt12SRGBToLinearEf.exit:                    ; preds = %2, %4
  %.sink.i = phi float [ %13, %4 ], [ 0x3FB3D07220000000, %2 ]
  %14 = fmul float %1, %.sink.i
  ret float %14
}